target datalayout = "e-m:e-p270:32:32-p271:32:32-p272:64:64-i64:64-i128:128-f80:128-n8:16:32:64-S128"
target triple = "x86_64-unknown-linux-gnu"

%"class.icu_75::UnicodeSet" = type <{ %"class.icu_75::UnicodeFilter", ptr, i32, i32, i8, [7 x i8], ptr, ptr, i32, [4 x i8], ptr, i32, [4 x i8], ptr, ptr, [25 x i32], [4 x i8] }>
%"class.icu_75::UnicodeFilter" = type { %"class.icu_75::UnicodeFunctor", %"class.icu_75::UnicodeMatcher" }
%"class.icu_75::UnicodeFunctor" = type { %"class.icu_75::UObject" }
%"class.icu_75::UObject" = type { ptr }
%"class.icu_75::UnicodeMatcher" = type { ptr }
%"class.icu_75::UVector" = type { %"class.icu_75::UObject", i32, i32, ptr, ptr, ptr }
%"class.icu_75::UnicodeString" = type { %"class.icu_75::Replaceable", %"union.icu_75::UnicodeString::StackBufferOrFields" }
%"class.icu_75::Replaceable" = type { %"class.icu_75::UObject" }
%"union.icu_75::UnicodeString::StackBufferOrFields" = type { %struct.anon.0, [32 x i8] }
%struct.anon.0 = type { i16, i32, i32, ptr }

; Function Attrs: mustprogress nounwind uwtable
define linkonce_odr noundef signext i8 @_ZNK6icu_757UVector7isEmptyEv(ptr noundef nonnull align 8 dereferenceable(40) %this) #0 comdat align 2 {
entry:
  %this.addr = alloca ptr, align 8
  store ptr %this, ptr %this.addr, align 8
  %this1 = load ptr, ptr %this.addr, align 8
  %count = getelementptr inbounds %"class.icu_75::UVector", ptr %this1, i32 0, i32 1
  %0 = load i32, ptr %count, align 8
  %cmp = icmp eq i32 %0, 0
  %conv = zext i1 %cmp to i8
  ret i8 %conv
}

; Function Attrs: mustprogress nounwind uwtable
define linkonce_odr noundef signext i8 @_ZNK6icu_7513UnicodeString7isEmptyEv(ptr noundef nonnull align 8 dereferenceable(64) %this) #0 comdat align 2 {
entry:
  %this.addr = alloca ptr, align 8
  store ptr %this, ptr %this.addr, align 8
  %this1 = load ptr, ptr %this.addr, align 8
  %fUnion = getelementptr inbounds %"class.icu_75::UnicodeString", ptr %this1, i32 0, i32 1
  %fLengthAndFlags = getelementptr inbounds %struct.anon.0, ptr %fUnion, i32 0, i32 0
  %0 = load i16, ptr %fLengthAndFlags, align 8
  %conv = sext i16 %0 to i32
  %shr = ashr i32 %conv, 5
  %cmp = icmp eq i32 %shr, 0
  %conv2 = zext i1 %cmp to i8
  ret i8 %conv2
}

; Function Attrs: mustprogress nounwind uwtable
define linkonce_odr noundef i32 @_ZNK6icu_757UVector4sizeEv(ptr noundef nonnull align 8 dereferenceable(40) %this) #0 comdat align 2 {
entry:
  %this.addr = alloca ptr, align 8
  store ptr %this, ptr %this.addr, align 8
  %this1 = load ptr, ptr %this.addr, align 8
  %count = getelementptr inbounds %"class.icu_75::UVector", ptr %this1, i32 0, i32 1
  %0 = load i32, ptr %count, align 8
  ret i32 %0
}

; Function Attrs: mustprogress uwtable
define noundef signext i8 @_ZNK6icu_7510UnicodeSet10hasStringsEv(ptr noundef nonnull align 8 dereferenceable(200) %this) #1 align 2 {
entry:
  %this.addr = alloca ptr, align 8
  store ptr %this, ptr %this.addr, align 8
  %this1 = load ptr, ptr %this.addr, align 8
  %strings = getelementptr inbounds %"class.icu_75::UnicodeSet", ptr %this1, i32 0, i32 13
  %0 = load ptr, ptr %strings, align 8
  %cmp = icmp ne ptr %0, null
  br i1 %cmp, label %land.rhs, label %land.end

land.rhs:                                         ; preds = %entry
  %strings2 = getelementptr inbounds %"class.icu_75::UnicodeSet", ptr %this1, i32 0, i32 13
  %1 = load ptr, ptr %strings2, align 8
  %call = call noundef signext i8 @_ZNK6icu_757UVector7isEmptyEv(ptr noundef nonnull align 8 dereferenceable(40) %1)
  %tobool = icmp ne i8 %call, 0
  %lnot = xor i1 %tobool, true
  br label %land.end

land.end:                                         ; preds = %land.rhs, %entry
  %2 = phi i1 [ false, %entry ], [ %lnot, %land.rhs ]
  %conv = zext i1 %2 to i8
  ret i8 %conv
}

; Function Attrs: mustprogress nounwind uwtable
define noundef i32 @_ZNK6icu_7510UnicodeSet11getRangeEndEi(ptr noundef nonnull align 8 dereferenceable(200) %this, i32 noundef %index) unnamed_addr #0 align 2 {
entry:
  %this.addr = alloca ptr, align 8
  %index.addr = alloca i32, align 4
  store ptr %this, ptr %this.addr, align 8
  store i32 %index, ptr %index.addr, align 4
  %this1 = load ptr, ptr %this.addr, align 8
  %list = getelementptr inbounds %"class.icu_75::UnicodeSet", ptr %this1, i32 0, i32 1
  %0 = load ptr, ptr %list, align 8
  %1 = load i32, ptr %index.addr, align 4
  %mul = mul nsw i32 %1, 2
  %add = add nsw i32 %mul, 1
  %idxprom = sext i32 %add to i64
  %arrayidx = getelementptr inbounds i32, ptr %0, i64 %idxprom
  %2 = load i32, ptr %arrayidx, align 4
  %sub = sub nsw i32 %2, 1
  ret i32 %sub
}

; Function Attrs: mustprogress nounwind uwtable
define noundef i32 @_ZNK6icu_7510UnicodeSet13getRangeStartEi(ptr noundef nonnull align 8 dereferenceable(200) %this, i32 noundef %index) unnamed_addr #0 align 2 {
entry:
  %this.addr = alloca ptr, align 8
  %index.addr = alloca i32, align 4
  store ptr %this, ptr %this.addr, align 8
  store i32 %index, ptr %index.addr, align 4
  %this1 = load ptr, ptr %this.addr, align 8
  %list = getelementptr inbounds %"class.icu_75::UnicodeSet", ptr %this1, i32 0, i32 1
  %0 = load ptr, ptr %list, align 8
  %1 = load i32, ptr %index.addr, align 4
  %mul = mul nsw i32 %1, 2
  %idxprom = sext i32 %mul to i64
  %arrayidx = getelementptr inbounds i32, ptr %0, i64 %idxprom
  %2 = load i32, ptr %arrayidx, align 4
  ret i32 %2
}

; Function Attrs: mustprogress nounwind uwtable
define noundef i32 @_ZNK6icu_7510UnicodeSet13getRangeCountEv(ptr noundef nonnull align 8 dereferenceable(200) %this) unnamed_addr #0 align 2 {
entry:
  %this.addr = alloca ptr, align 8
  store ptr %this, ptr %this.addr, align 8
  %this1 = load ptr, ptr %this.addr, align 8
  %len = getelementptr inbounds %"class.icu_75::UnicodeSet", ptr %this1, i32 0, i32 3
  %0 = load i32, ptr %len, align 4
  %div = sdiv i32 %0, 2
  ret i32 %div
}

; Function Attrs: mustprogress uwtable
define noundef signext i8 @_ZNK6icu_7510UnicodeSet17matchesIndexValueEh(ptr noundef nonnull align 8 dereferenceable(200) %this, i8 noundef zeroext %v) unnamed_addr #1 align 2 {
entry:
  %retval = alloca i8, align 1
  %this.addr = alloca ptr, align 8
  %v.addr = alloca i8, align 1
  %i = alloca i32, align 4
  %rangeCount = alloca i32, align 4
  %low = alloca i32, align 4
  %high = alloca i32, align 4
  %s = alloca ptr, align 8
  %c = alloca i32, align 4
  store ptr %this, ptr %this.addr, align 8
  store i8 %v, ptr %v.addr, align 1
  %this1 = load ptr, ptr %this.addr, align 8
  %call = call noundef i32 @_ZNK6icu_7510UnicodeSet13getRangeCountEv(ptr noundef nonnull align 8 dereferenceable(200) %this1)
  store i32 %call, ptr %rangeCount, align 4
  store i32 0, ptr %i, align 4
  br label %for.cond

for.cond:                                         ; preds = %for.inc, %entry
  %0 = load i32, ptr %i, align 4
  %1 = load i32, ptr %rangeCount, align 4
  %cmp = icmp slt i32 %0, %1
  br i1 %cmp, label %for.body, label %for.end

for.body:                                         ; preds = %for.cond
  %2 = load i32, ptr %i, align 4
  %call2 = call noundef i32 @_ZNK6icu_7510UnicodeSet13getRangeStartEi(ptr noundef nonnull align 8 dereferenceable(200) %this1, i32 noundef %2)
  store i32 %call2, ptr %low, align 4
  %3 = load i32, ptr %i, align 4
  %call3 = call noundef i32 @_ZNK6icu_7510UnicodeSet11getRangeEndEi(ptr noundef nonnull align 8 dereferenceable(200) %this1, i32 noundef %3)
  store i32 %call3, ptr %high, align 4
  %4 = load i32, ptr %low, align 4
  %and = and i32 %4, -256
  %5 = load i32, ptr %high, align 4
  %and4 = and i32 %5, -256
  %cmp5 = icmp eq i32 %and, %and4
  br i1 %cmp5, label %if.then, label %if.else

if.then:                                          ; preds = %for.body
  %6 = load i32, ptr %low, align 4
  %and6 = and i32 %6, 255
  %7 = load i8, ptr %v.addr, align 1
  %conv = zext i8 %7 to i32
  %cmp7 = icmp sle i32 %and6, %conv
  br i1 %cmp7, label %land.lhs.true, label %if.end

land.lhs.true:                                    ; preds = %if.then
  %8 = load i8, ptr %v.addr, align 1
  %conv8 = zext i8 %8 to i32
  %9 = load i32, ptr %high, align 4
  %and9 = and i32 %9, 255
  %cmp10 = icmp sle i32 %conv8, %and9
  br i1 %cmp10, label %if.then11, label %if.end

if.then11:                                        ; preds = %land.lhs.true
  store i8 1, ptr %retval, align 1
  br label %return

if.end:                                           ; preds = %land.lhs.true, %if.then
  br label %if.end20

if.else:                                          ; preds = %for.body
  %10 = load i32, ptr %low, align 4
  %and12 = and i32 %10, 255
  %11 = load i8, ptr %v.addr, align 1
  %conv13 = zext i8 %11 to i32
  %cmp14 = icmp sle i32 %and12, %conv13
  br i1 %cmp14, label %if.then18, label %lor.lhs.false

lor.lhs.false:                                    ; preds = %if.else
  %12 = load i8, ptr %v.addr, align 1
  %conv15 = zext i8 %12 to i32
  %13 = load i32, ptr %high, align 4
  %and16 = and i32 %13, 255
  %cmp17 = icmp sle i32 %conv15, %and16
  br i1 %cmp17, label %if.then18, label %if.end19

if.then18:                                        ; preds = %lor.lhs.false, %if.else
  store i8 1, ptr %retval, align 1
  br label %return

if.end19:                                         ; preds = %lor.lhs.false
  br label %if.end20

if.end20:                                         ; preds = %if.end19, %if.end
  br label %for.inc

for.inc:                                          ; preds = %if.end20
  %14 = load i32, ptr %i, align 4
  %inc = add nsw i32 %14, 1
  store i32 %inc, ptr %i, align 4
  br label %for.cond, !llvm.loop !12

for.end:                                          ; preds = %for.cond
  %call21 = call noundef signext i8 @_ZNK6icu_7510UnicodeSet10hasStringsEv(ptr noundef nonnull align 8 dereferenceable(200) %this1)
  %tobool = icmp ne i8 %call21, 0
  br i1 %tobool, label %if.then22, label %if.end42

if.then22:                                        ; preds = %for.end
  store i32 0, ptr %i, align 4
  br label %for.cond23

for.cond23:                                       ; preds = %for.inc39, %if.then22
  %15 = load i32, ptr %i, align 4
  %strings = getelementptr inbounds %"class.icu_75::UnicodeSet", ptr %this1, i32 0, i32 13
  %16 = load ptr, ptr %strings, align 8
  %call24 = call noundef i32 @_ZNK6icu_757UVector4sizeEv(ptr noundef nonnull align 8 dereferenceable(40) %16)
  %cmp25 = icmp slt i32 %15, %call24
  br i1 %cmp25, label %for.body26, label %for.end41

for.body26:                                       ; preds = %for.cond23
  %strings27 = getelementptr inbounds %"class.icu_75::UnicodeSet", ptr %this1, i32 0, i32 13
  %17 = load ptr, ptr %strings27, align 8
  %18 = load i32, ptr %i, align 4
  %call28 = call noundef ptr @_ZNK6icu_757UVector9elementAtEi(ptr noundef nonnull align 8 dereferenceable(40) %17, i32 noundef %18)
  store ptr %call28, ptr %s, align 8
  %19 = load ptr, ptr %s, align 8
  %call29 = call noundef signext i8 @_ZNK6icu_7513UnicodeString7isEmptyEv(ptr noundef nonnull align 8 dereferenceable(64) %19)
  %tobool30 = icmp ne i8 %call29, 0
  br i1 %tobool30, label %if.then31, label %if.end32

if.then31:                                        ; preds = %for.body26
  br label %for.inc39

if.end32:                                         ; preds = %for.body26
  %20 = load ptr, ptr %s, align 8
  %call33 = call noundef i32 @_ZNK6icu_7513UnicodeString8char32AtEi(ptr noundef nonnull align 8 dereferenceable(64) %20, i32 noundef 0)
  store i32 %call33, ptr %c, align 4
  %21 = load i32, ptr %c, align 4
  %and34 = and i32 %21, 255
  %22 = load i8, ptr %v.addr, align 1
  %conv35 = zext i8 %22 to i32
  %cmp36 = icmp eq i32 %and34, %conv35
  br i1 %cmp36, label %if.then37, label %if.end38

if.then37:                                        ; preds = %if.end32
  store i8 1, ptr %retval, align 1
  br label %return

if.end38:                                         ; preds = %if.end32
  br label %for.inc39

for.inc39:                                        ; preds = %if.end38, %if.then31
  %23 = load i32, ptr %i, align 4
  %inc40 = add nsw i32 %23, 1
  store i32 %inc40, ptr %i, align 4
  br label %for.cond23, !llvm.loop !13

for.end41:                                        ; preds = %for.cond23
  br label %if.end42

if.end42:                                         ; preds = %for.end41, %for.end
  store i8 0, ptr %retval, align 1
  br label %return

return:                                           ; preds = %if.end42, %if.then37, %if.then18, %if.then11
  %24 = load i8, ptr %retval, align 1
  ret i8 %24
}

; Function Attrs: uwtable
define noundef signext i8 @_ZThn8_NK6icu_7510UnicodeSet17matchesIndexValueEh(ptr noundef %this, i8 noundef zeroext %v) unnamed_addr #9 align 2 {
entry:
  %this.addr = alloca ptr, align 8
  %v.addr = alloca i8, align 1
  store ptr %this, ptr %this.addr, align 8
  store i8 %v, ptr %v.addr, align 1
  %this1 = load ptr, ptr %this.addr, align 8
  %0 = getelementptr inbounds i8, ptr %this1, i64 -8
  %1 = load i8, ptr %v.addr, align 1
  %call = tail call noundef signext i8 @_ZNK6icu_7510UnicodeSet17matchesIndexValueEh(ptr noundef nonnull align 8 dereferenceable(200) %0, i8 noundef zeroext %1)
  ret i8 %call
}