; Function Attrs: uwtable
define noundef signext i8 @_ZThn8_NK6icu_7510UnicodeSet17matchesIndexValueEh(ptr nocapture noundef readonly %this, i8 noundef zeroext %v) unnamed_addr #14 align 2 {
entry:
  %len.i.i = getelementptr inbounds i8, ptr %this, i64 20
  %0 = load i32, ptr %len.i.i, align 4
  %cmp24.i = icmp sgt i32 %0, 1
  br i1 %cmp24.i, label %for.body.lr.ph.i, label %for.end.i

for.body.lr.ph.i:                                 ; preds = %entry
  %div.i3437.i = lshr i32 %0, 1
  %list.i.i = getelementptr inbounds i8, ptr %this, i64 8
  %1 = load ptr, ptr %list.i.i, align 8
  %conv13.i = zext i8 %v to i32
  %wide.trip.count.i = zext nneg i32 %div.i3437.i to i64
  br label %for.body.i

for.body.i:                                       ; preds = %for.inc.i, %for.body.lr.ph.i
  %indvars.iv.i = phi i64 [ 0, %for.body.lr.ph.i ], [ %indvars.iv.next.i, %for.inc.i ]
  %2 = shl nuw nsw i64 %indvars.iv.i, 1
  %arrayidx.i.i = getelementptr inbounds i32, ptr %1, i64 %2
  %3 = load i32, ptr %arrayidx.i.i, align 4
  %4 = or disjoint i64 %2, 1
  %arrayidx.i20.i = getelementptr inbounds i32, ptr %1, i64 %4
  %5 = load i32, ptr %arrayidx.i20.i, align 4
  %sub.i.i = add nsw i32 %5, -1
  %6 = xor i32 %sub.i.i, %3
  %cmp5.i = icmp ult i32 %6, 256
  %and6.i = and i32 %3, 255
  %cmp7.not.i = icmp ugt i32 %and6.i, %conv13.i
  %and9.i = and i32 %sub.i.i, 255
  %cmp10.not.i = icmp ult i32 %and9.i, %conv13.i
  br i1 %cmp5.i, label %if.then.i, label %if.else.i

if.then.i:                                        ; preds = %for.body.i
  %or.cond.i = or i1 %cmp7.not.i, %cmp10.not.i
  br i1 %or.cond.i, label %for.inc.i, label %_ZNK6icu_7510UnicodeSet17matchesIndexValueEh.exit

if.else.i:                                        ; preds = %for.body.i
  %or.cond16.i = and i1 %cmp7.not.i, %cmp10.not.i
  br i1 %or.cond16.i, label %for.inc.i, label %_ZNK6icu_7510UnicodeSet17matchesIndexValueEh.exit

for.inc.i:                                        ; preds = %if.else.i, %if.then.i
  %indvars.iv.next.i = add nuw nsw i64 %indvars.iv.i, 1
  %exitcond.not.i = icmp eq i64 %indvars.iv.next.i, %wide.trip.count.i
  br i1 %exitcond.not.i, label %for.end.i, label %for.body.i, !llvm.loop !13

for.end.i:                                        ; preds = %for.inc.i, %entry
  %strings.i.i = getelementptr inbounds i8, ptr %this, i64 72
  %7 = load ptr, ptr %strings.i.i, align 8
  %cmp.not.i.i = icmp eq ptr %7, null
  br i1 %cmp.not.i.i, label %_ZNK6icu_7510UnicodeSet17matchesIndexValueEh.exit, label %_ZNK6icu_7510UnicodeSet10hasStringsEv.exit.i

_ZNK6icu_7510UnicodeSet10hasStringsEv.exit.i:     ; preds = %for.end.i
  %count.i.i.i = getelementptr inbounds i8, ptr %7, i64 8
  %8 = load i32, ptr %count.i.i.i, align 8
  %cmp2527.i = icmp sgt i32 %8, 0
  br i1 %cmp2527.i, label %for.body26.i, label %_ZNK6icu_7510UnicodeSet17matchesIndexValueEh.exit

for.body26.i:                                     ; preds = %_ZNK6icu_7510UnicodeSet10hasStringsEv.exit.i, %for.inc39.i
  %9 = phi ptr [ %12, %for.inc39.i ], [ %7, %_ZNK6icu_7510UnicodeSet10hasStringsEv.exit.i ]
  %i.128.i = phi i32 [ %inc40.i, %for.inc39.i ], [ 0, %_ZNK6icu_7510UnicodeSet10hasStringsEv.exit.i ]
  %call28.i = tail call noundef ptr @_ZNK6icu_757UVector9elementAtEi(ptr noundef nonnull align 8 dereferenceable(40) %9, i32 noundef %i.128.i)
  %fUnion.i.i = getelementptr inbounds i8, ptr %call28.i, i64 8
  %10 = load i16, ptr %fUnion.i.i, align 8
  %cmp.i.i = icmp ugt i16 %10, 31
  br i1 %cmp.i.i, label %if.end32.i, label %for.inc39.i

if.end32.i:                                       ; preds = %for.body26.i
  %call33.i = tail call noundef i32 @_ZNK6icu_7513UnicodeString8char32AtEi(ptr noundef nonnull align 8 dereferenceable(64) %call28.i, i32 noundef 0)
  %11 = trunc i32 %call33.i to i8
  %cmp36.i = icmp eq i8 %11, %v
  br i1 %cmp36.i, label %_ZNK6icu_7510UnicodeSet17matchesIndexValueEh.exit, label %for.inc39.i

for.inc39.i:                                      ; preds = %if.end32.i, %for.body26.i
  %inc40.i = add nuw nsw i32 %i.128.i, 1
  %12 = load ptr, ptr %strings.i.i, align 8
  %count.i.i = getelementptr inbounds i8, ptr %12, i64 8
  %13 = load i32, ptr %count.i.i, align 8
  %cmp25.i = icmp slt i32 %inc40.i, %13
  br i1 %cmp25.i, label %for.body26.i, label %_ZNK6icu_7510UnicodeSet17matchesIndexValueEh.exit, !llvm.loop !14

_ZNK6icu_7510UnicodeSet17matchesIndexValueEh.exit: ; preds = %if.then.i, %if.else.i, %if.end32.i, %for.inc39.i, %for.end.i, %_ZNK6icu_7510UnicodeSet10hasStringsEv.exit.i
  %retval.0.i = phi i8 [ 0, %_ZNK6icu_7510UnicodeSet10hasStringsEv.exit.i ], [ 0, %for.end.i ], [ 0, %for.inc39.i ], [ 1, %if.end32.i ], [ 1, %if.else.i ], [ 1, %if.then.i ]
  ret i8 %retval.0.i
}